target datalayout = "e-m:e-p270:32:32-p271:32:32-p272:64:64-i64:64-i128:128-f80:128-n8:16:32:64-S128"
target triple = "x86_64-pc-linux-gnu"

; Function Attrs: nounwind uwtable
define dso_local zeroext i8 @zend_get_opcode_id(ptr noundef %0, i64 noundef %1) #0 {
  %3 = alloca i8, align 1
  %4 = alloca ptr, align 8
  %5 = alloca i64, align 8
  %6 = alloca i8, align 1
  %7 = alloca ptr, align 8
  %8 = alloca i32, align 4
  store ptr %0, ptr %4, align 8, !tbaa !7
  store i64 %1, ptr %5, align 8, !tbaa !12
  call void @llvm.lifetime.start.p0(i64 1, ptr %6) #4
  store i8 0, ptr %6, align 1, !tbaa !4
  br label %9

9:                                                ; preds = %32, %2
  %10 = load i8, ptr %6, align 1, !tbaa !4
  %11 = zext i8 %10 to i64
  %12 = icmp ult i64 %11, 209
  br i1 %12, label %13, label %35

13:                                               ; preds = %9
  call void @llvm.lifetime.start.p0(i64 8, ptr %7) #4
  %14 = load i8, ptr %6, align 1, !tbaa !4
  %15 = zext i8 %14 to i64
  %16 = getelementptr inbounds nuw [210 x ptr], ptr @zend_vm_opcodes_names, i64 0, i64 %15
  %17 = load ptr, ptr %16, align 8, !tbaa !7
  store ptr %17, ptr %7, align 8, !tbaa !7
  %18 = load ptr, ptr %7, align 8, !tbaa !7
  %19 = icmp ne ptr %18, null
  br i1 %19, label %20, label %28

20:                                               ; preds = %13
  %21 = load ptr, ptr %7, align 8, !tbaa !7
  %22 = load ptr, ptr %4, align 8, !tbaa !7
  %23 = load i64, ptr %5, align 8, !tbaa !12
  %24 = call i32 @strncmp(ptr noundef %21, ptr noundef %22, i64 noundef %23) #5
  %25 = icmp eq i32 %24, 0
  br i1 %25, label %26, label %28

26:                                               ; preds = %20
  %27 = load i8, ptr %6, align 1, !tbaa !4
  store i8 %27, ptr %3, align 1
  store i32 1, ptr %8, align 4
  br label %29

28:                                               ; preds = %20, %13
  store i32 0, ptr %8, align 4
  br label %29

29:                                               ; preds = %28, %26
  call void @llvm.lifetime.end.p0(i64 8, ptr %7) #4
  %30 = load i32, ptr %8, align 4
  switch i32 %30, label %36 [
    i32 0, label %31
  ]

31:                                               ; preds = %29
  br label %32

32:                                               ; preds = %31
  %33 = load i8, ptr %6, align 1, !tbaa !4
  %34 = add i8 %33, 1
  store i8 %34, ptr %6, align 1, !tbaa !4
  br label %9

35:                                               ; preds = %9
  store i8 -46, ptr %3, align 1
  store i32 1, ptr %8, align 4
  br label %36

36:                                               ; preds = %35, %29
  call void @llvm.lifetime.end.p0(i64 1, ptr %6) #4
  %37 = load i8, ptr %3, align 1
  ret i8 %37
}