; Function Attrs: nofree nounwind memory(read, inaccessiblemem: none) uwtable
define dso_local zeroext range(i8 0, -45) i8 @zend_get_opcode_id(ptr noundef readonly captures(none) %0, i64 noundef %1) local_unnamed_addr #1 {
  br label %3

3:                                                ; preds = %2, %10
  %indvars.iv = phi i64 [ 0, %2 ], [ %indvars.iv.next, %10 ]
  %4 = trunc nuw i64 %indvars.iv to i8
  switch i8 %4, label %5 [
    i8 79, label %10
    i8 45, label %10
  ]

5:                                                ; preds = %3
  %6 = getelementptr inbounds nuw [210 x ptr], ptr @zend_vm_opcodes_names, i64 0, i64 %indvars.iv
  %7 = load ptr, ptr %6, align 8, !tbaa !5
  %8 = tail call i32 @strncmp(ptr noundef %7, ptr noundef %0, i64 noundef %1) #3
  %9 = icmp eq i32 %8, 0
  br i1 %9, label %11, label %10

10:                                               ; preds = %5, %3, %3
  %indvars.iv.next = add nuw nsw i64 %indvars.iv, 1
  %exitcond.not = icmp eq i64 %indvars.iv.next, 209
  br i1 %exitcond.not, label %11, label %3

11:                                               ; preds = %5, %10
  %.2 = phi i8 [ -46, %10 ], [ %4, %5 ]
  ret i8 %.2
}